; ModuleID = 'source-C-CXX/10/775.cpp'
source_filename = "source-C-CXX/10/775.cpp"
target datalayout = "e-m:e-p270:32:32-p271:32:32-p272:64:64-i64:64-f80:128-n8:16:32:64-S128"
target triple = "x86_64-pc-linux-gnu"

%"class.std::ios_base::Init" = type { i8 }
%"class.std::basic_istream" = type { i32 (...)**, i64, %"class.std::basic_ios" }
%"class.std::basic_ios" = type { %"class.std::ios_base", %"class.std::basic_ostream"*, i8, i8, %"class.std::basic_streambuf"*, %"class.std::ctype"*, %"class.std::num_put"*, %"class.std::num_get"* }
%"class.std::ios_base" = type { i32 (...)**, i64, i64, i32, i32, i32, %"struct.std::ios_base::_Callback_list"*, %"struct.std::ios_base::_Words", [8 x %"struct.std::ios_base::_Words"], i32, %"struct.std::ios_base::_Words"*, %"class.std::locale" }
%"struct.std::ios_base::_Callback_list" = type { %"struct.std::ios_base::_Callback_list"*, void (i32, %"class.std::ios_base"*, i32)*, i32, i32 }
%"struct.std::ios_base::_Words" = type { i8*, i64 }
%"class.std::locale" = type { %"class.std::locale::_Impl"* }
%"class.std::locale::_Impl" = type { i32, %"class.std::locale::facet"**, i64, %"class.std::locale::facet"**, i8** }
%"class.std::locale::facet" = type <{ i32 (...)**, i32, [4 x i8] }>
%"class.std::basic_ostream" = type { i32 (...)**, %"class.std::basic_ios" }
%"class.std::basic_streambuf" = type { i32 (...)**, i8*, i8*, i8*, i8*, i8*, i8*, %"class.std::locale" }
%"class.std::ctype" = type <{ %"class.std::locale::facet.base", [4 x i8], %struct.__locale_struct*, i8, [7 x i8], i32*, i32*, i16*, i8, [256 x i8], [256 x i8], i8, [6 x i8] }>
%"class.std::locale::facet.base" = type <{ i32 (...)**, i32 }>
%struct.__locale_struct = type { [13 x %struct.__locale_data*], i16*, i32*, i32*, [13 x i8*] }
%struct.__locale_data = type opaque
%"class.std::num_put" = type { %"class.std::locale::facet.base", [4 x i8] }
%"class.std::num_get" = type { %"class.std::locale::facet.base", [4 x i8] }

@_ZStL8__ioinit = internal global %"class.std::ios_base::Init" zeroinitializer, align 1
@__dso_handle = external hidden global i8
@_ZSt3cin = external global %"class.std::basic_istream", align 8
@_ZSt4cout = external global %"class.std::basic_ostream", align 8
@llvm.global_ctors = appending global [1 x { i32, void ()*, i8* }] [{ i32, void ()*, i8* } { i32 65535, void ()* @_GLOBAL__sub_I_775.cpp, i8* null }]

declare void @_ZNSt8ios_base4InitC1Ev(%"class.std::ios_base::Init"* nonnull align 1 dereferenceable(1)) unnamed_addr #0

; Function Attrs: nounwind
declare void @_ZNSt8ios_base4InitD1Ev(%"class.std::ios_base::Init"* nonnull align 1 dereferenceable(1)) unnamed_addr #1

; Function Attrs: nofree nounwind
declare i32 @__cxa_atexit(void (i8*)*, i8*, i8*) local_unnamed_addr #2

; Function Attrs: mustprogress norecurse sspstrong uwtable
define dso_local i32 @main() local_unnamed_addr #3 {
  %1 = alloca i32, align 4
  %2 = alloca i32, align 4
  %3 = alloca i32, align 4
  %4 = bitcast i32* %1 to i8*
  call void @llvm.lifetime.start.p0i8(i64 4, i8* nonnull %4) #8
  %5 = bitcast i32* %2 to i8*
  call void @llvm.lifetime.start.p0i8(i64 4, i8* nonnull %5) #8
  %6 = bitcast i32* %3 to i8*
  call void @llvm.lifetime.start.p0i8(i64 4, i8* nonnull %6) #8
  %7 = call nonnull align 8 dereferenceable(16) %"class.std::basic_istream"* @_ZNSirsERi(%"class.std::basic_istream"* nonnull align 8 dereferenceable(16) @_ZSt3cin, i32* nonnull align 4 dereferenceable(4) %1)
  %8 = call nonnull align 8 dereferenceable(16) %"class.std::basic_istream"* @_ZNSirsERi(%"class.std::basic_istream"* nonnull align 8 dereferenceable(16) %7, i32* nonnull align 4 dereferenceable(4) %2)
  %9 = call nonnull align 8 dereferenceable(16) %"class.std::basic_istream"* @_ZNSirsERi(%"class.std::basic_istream"* nonnull align 8 dereferenceable(16) %8, i32* nonnull align 4 dereferenceable(4) %3)
  %10 = load i32, i32* %2, align 4, !tbaa !5
  %11 = load i32, i32* %1, align 4
  %12 = icmp sgt i32 %10, 1
  br i1 %12, label %13, label %89

13:                                               ; preds = %0
  %14 = and i32 %11, 3
  %15 = icmp eq i32 %14, 0
  %16 = srem i32 %11, 100
  %17 = icmp ne i32 %16, 0
  %18 = and i1 %15, %17
  %19 = srem i32 %11, 400
  %20 = icmp eq i32 %19, 0
  %21 = select i1 %18, i1 true, i1 %20
  br i1 %21, label %29, label %22

22:                                               ; preds = %13
  switch i32 %10, label %23 [
    i32 2, label %89
    i32 3, label %72
  ]

23:                                               ; preds = %22
  %24 = add i32 %10, -3
  %25 = and i32 %24, 1
  %26 = icmp eq i32 %10, 4
  br i1 %26, label %73, label %27

27:                                               ; preds = %23
  %28 = and i32 %24, -2
  br label %50

29:                                               ; preds = %13, %46
  %30 = phi i32 [ %47, %46 ], [ 0, %13 ]
  %31 = phi i32 [ %48, %46 ], [ 1, %13 ]
  %32 = and i32 %31, 2147483641
  %33 = icmp eq i32 %32, 1
  %34 = and i32 %31, 2147483645
  %35 = icmp eq i32 %34, 8
  %36 = or i1 %35, %33
  br i1 %36, label %44, label %37

37:                                               ; preds = %29
  switch i32 %34, label %40 [
    i32 9, label %38
    i32 4, label %38
  ]

38:                                               ; preds = %37, %37
  %39 = add nsw i32 %30, 30
  br label %46

40:                                               ; preds = %37
  %41 = icmp eq i32 %31, 2
  %42 = add nsw i32 %30, 29
  %43 = select i1 %41, i32 %42, i32 %30
  br label %46

44:                                               ; preds = %29
  %45 = add nsw i32 %30, 31
  br label %46

46:                                               ; preds = %44, %40, %38
  %47 = phi i32 [ %45, %44 ], [ %39, %38 ], [ %43, %40 ]
  %48 = add nuw nsw i32 %31, 1
  %49 = icmp eq i32 %48, %10
  br i1 %49, label %89, label %29, !llvm.loop !9

50:                                               ; preds = %128, %27
  %51 = phi i32 [ 59, %27 ], [ %129, %128 ]
  %52 = phi i32 [ 3, %27 ], [ %130, %128 ]
  %53 = phi i32 [ %28, %27 ], [ %131, %128 ]
  %54 = and i32 %52, 2147483641
  %55 = icmp eq i32 %54, 1
  %56 = and i32 %52, 2147483645
  %57 = icmp eq i32 %56, 8
  %58 = or i1 %57, %55
  br i1 %58, label %59, label %61

59:                                               ; preds = %50
  %60 = add nsw i32 %51, 31
  br label %64

61:                                               ; preds = %50
  switch i32 %56, label %64 [
    i32 9, label %62
    i32 4, label %62
  ]

62:                                               ; preds = %61, %61
  %63 = add nsw i32 %51, 30
  br label %64

64:                                               ; preds = %61, %59, %62
  %65 = phi i32 [ %60, %59 ], [ %63, %62 ], [ %51, %61 ]
  %66 = add nuw nsw i32 %52, 1
  %67 = and i32 %66, 2147483641
  %68 = icmp eq i32 %67, 1
  %69 = and i32 %66, 2147483645
  %70 = icmp eq i32 %69, 8
  %71 = or i1 %70, %68
  br i1 %71, label %126, label %123

72:                                               ; preds = %22
  br label %89

73:                                               ; preds = %128, %23
  %74 = phi i32 [ undef, %23 ], [ %129, %128 ]
  %75 = phi i32 [ 59, %23 ], [ %129, %128 ]
  %76 = phi i32 [ 3, %23 ], [ %130, %128 ]
  %77 = icmp eq i32 %25, 0
  br i1 %77, label %89, label %78

78:                                               ; preds = %73
  %79 = and i32 %76, 2147483641
  %80 = icmp eq i32 %79, 1
  %81 = and i32 %76, 2147483645
  %82 = icmp eq i32 %81, 8
  %83 = or i1 %82, %80
  br i1 %83, label %87, label %84

84:                                               ; preds = %78
  switch i32 %81, label %89 [
    i32 9, label %85
    i32 4, label %85
  ]

85:                                               ; preds = %84, %84
  %86 = add nsw i32 %75, 30
  br label %89

87:                                               ; preds = %78
  %88 = add nsw i32 %75, 31
  br label %89

89:                                               ; preds = %73, %84, %85, %87, %46, %22, %72, %0
  %90 = phi i32 [ 0, %0 ], [ 31, %22 ], [ 59, %72 ], [ %47, %46 ], [ %74, %73 ], [ %88, %87 ], [ %86, %85 ], [ %75, %84 ]
  %91 = load i32, i32* %3, align 4, !tbaa !5
  %92 = add nsw i32 %91, %90
  %93 = call nonnull align 8 dereferenceable(8) %"class.std::basic_ostream"* @_ZNSolsEi(%"class.std::basic_ostream"* nonnull align 8 dereferenceable(8) @_ZSt4cout, i32 %92)
  %94 = bitcast %"class.std::basic_ostream"* %93 to i8**
  %95 = load i8*, i8** %94, align 8, !tbaa !11
  %96 = getelementptr i8, i8* %95, i64 -24
  %97 = bitcast i8* %96 to i64*
  %98 = load i64, i64* %97, align 8
  %99 = bitcast %"class.std::basic_ostream"* %93 to i8*
  %100 = add nsw i64 %98, 240
  %101 = getelementptr inbounds i8, i8* %99, i64 %100
  %102 = bitcast i8* %101 to %"class.std::ctype"**
  %103 = load %"class.std::ctype"*, %"class.std::ctype"** %102, align 8, !tbaa !13
  %104 = icmp eq %"class.std::ctype"* %103, null
  br i1 %104, label %105, label %106

105:                                              ; preds = %89
  call void @_ZSt16__throw_bad_castv() #9
  unreachable

106:                                              ; preds = %89
  %107 = getelementptr inbounds %"class.std::ctype", %"class.std::ctype"* %103, i64 0, i32 8
  %108 = load i8, i8* %107, align 8, !tbaa !17
  %109 = icmp eq i8 %108, 0
  br i1 %109, label %113, label %110

110:                                              ; preds = %106
  %111 = getelementptr inbounds %"class.std::ctype", %"class.std::ctype"* %103, i64 0, i32 9, i64 10
  %112 = load i8, i8* %111, align 1, !tbaa !19
  br label %119

113:                                              ; preds = %106
  call void @_ZNKSt5ctypeIcE13_M_widen_initEv(%"class.std::ctype"* nonnull align 8 dereferenceable(570) %103)
  %114 = bitcast %"class.std::ctype"* %103 to i8 (%"class.std::ctype"*, i8)***
  %115 = load i8 (%"class.std::ctype"*, i8)**, i8 (%"class.std::ctype"*, i8)*** %114, align 8, !tbaa !11
  %116 = getelementptr inbounds i8 (%"class.std::ctype"*, i8)*, i8 (%"class.std::ctype"*, i8)** %115, i64 6
  %117 = load i8 (%"class.std::ctype"*, i8)*, i8 (%"class.std::ctype"*, i8)** %116, align 8
  %118 = call signext i8 %117(%"class.std::ctype"* nonnull align 8 dereferenceable(570) %103, i8 signext 10)
  br label %119

119:                                              ; preds = %110, %113
  %120 = phi i8 [ %112, %110 ], [ %118, %113 ]
  %121 = call nonnull align 8 dereferenceable(8) %"class.std::basic_ostream"* @_ZNSo3putEc(%"class.std::basic_ostream"* nonnull align 8 dereferenceable(8) %93, i8 signext %120)
  %122 = call nonnull align 8 dereferenceable(8) %"class.std::basic_ostream"* @_ZNSo5flushEv(%"class.std::basic_ostream"* nonnull align 8 dereferenceable(8) %121)
  call void @llvm.lifetime.end.p0i8(i64 4, i8* nonnull %6) #8
  call void @llvm.lifetime.end.p0i8(i64 4, i8* nonnull %5) #8
  call void @llvm.lifetime.end.p0i8(i64 4, i8* nonnull %4) #8
  ret i32 0

123:                                              ; preds = %64
  switch i32 %69, label %128 [
    i32 9, label %124
    i32 4, label %124
  ]

124:                                              ; preds = %123, %123
  %125 = add nsw i32 %65, 30
  br label %128

126:                                              ; preds = %64
  %127 = add nsw i32 %65, 31
  br label %128

128:                                              ; preds = %126, %124, %123
  %129 = phi i32 [ %127, %126 ], [ %125, %124 ], [ %65, %123 ]
  %130 = add nuw nsw i32 %52, 2
  %131 = add i32 %53, -2
  %132 = icmp eq i32 %131, 0
  br i1 %132, label %73, label %50, !llvm.loop !20
}

; Function Attrs: argmemonly mustprogress nofree nosync nounwind willreturn
declare void @llvm.lifetime.start.p0i8(i64 immarg, i8* nocapture) #4

declare nonnull align 8 dereferenceable(16) %"class.std::basic_istream"* @_ZNSirsERi(%"class.std::basic_istream"* nonnull align 8 dereferenceable(16), i32* nonnull align 4 dereferenceable(4)) local_unnamed_addr #0

; Function Attrs: mustprogress nofree norecurse nosync nounwind readnone sspstrong uwtable willreturn
define dso_local i32 @_Z5judgei(i32 %0) local_unnamed_addr #5 {
  %2 = and i32 %0, 3
  %3 = icmp eq i32 %2, 0
  %4 = srem i32 %0, 100
  %5 = icmp ne i32 %4, 0
  %6 = and i1 %3, %5
  %7 = srem i32 %0, 400
  %8 = icmp eq i32 %7, 0
  %9 = select i1 %6, i1 true, i1 %8
  %10 = zext i1 %9 to i32
  ret i32 %10
}

declare nonnull align 8 dereferenceable(8) %"class.std::basic_ostream"* @_ZNSolsEi(%"class.std::basic_ostream"* nonnull align 8 dereferenceable(8), i32) local_unnamed_addr #0

; Function Attrs: argmemonly mustprogress nofree nosync nounwind willreturn
declare void @llvm.lifetime.end.p0i8(i64 immarg, i8* nocapture) #4

declare nonnull align 8 dereferenceable(8) %"class.std::basic_ostream"* @_ZNSo3putEc(%"class.std::basic_ostream"* nonnull align 8 dereferenceable(8), i8 signext) local_unnamed_addr #0

declare nonnull align 8 dereferenceable(8) %"class.std::basic_ostream"* @_ZNSo5flushEv(%"class.std::basic_ostream"* nonnull align 8 dereferenceable(8)) local_unnamed_addr #0

; Function Attrs: noreturn
declare void @_ZSt16__throw_bad_castv() local_unnamed_addr #6

declare void @_ZNKSt5ctypeIcE13_M_widen_initEv(%"class.std::ctype"* nonnull align 8 dereferenceable(570)) local_unnamed_addr #0

; Function Attrs: sspstrong uwtable
define internal void @_GLOBAL__sub_I_775.cpp() #7 section ".text.startup" {
  tail call void @_ZNSt8ios_base4InitC1Ev(%"class.std::ios_base::Init"* nonnull align 1 dereferenceable(1) @_ZStL8__ioinit)
  %1 = tail call i32 @__cxa_atexit(void (i8*)* bitcast (void (%"class.std::ios_base::Init"*)* @_ZNSt8ios_base4InitD1Ev to void (i8*)*), i8* getelementptr inbounds (%"class.std::ios_base::Init", %"class.std::ios_base::Init"* @_ZStL8__ioinit, i64 0, i32 0), i8* nonnull @__dso_handle) #8
  ret void
}


!llvm.module.flags = !{!0, !1, !2, !3}
!llvm.ident = !{!4}

!0 = !{i32 1, !"wchar_size", i32 4}
!1 = !{i32 7, !"PIC Level", i32 2}
!2 = !{i32 7, !"PIE Level", i32 2}
!3 = !{i32 7, !"uwtable", i32 1}
!4 = !{!"clang version 13.0.0"}
!5 = !{!6, !6, i64 0}
!6 = !{!"int", !7, i64 0}
!7 = !{!"omnipotent char", !8, i64 0}
!8 = !{!"Simple C++ TBAA"}
!9 = distinct !{!9, !10}
!10 = !{!"llvm.loop.mustprogress"}
!11 = !{!12, !12, i64 0}
!12 = !{!"vtable pointer", !8, i64 0}
!13 = !{!14, !15, i64 240}
!14 = !{!"_ZTSSt9basic_iosIcSt11char_traitsIcEE", !15, i64 216, !7, i64 224, !16, i64 225, !15, i64 232, !15, i64 240, !15, i64 248, !15, i64 256}
!15 = !{!"any pointer", !7, i64 0}
!16 = !{!"bool", !7, i64 0}
!17 = !{!18, !7, i64 56}
!18 = !{!"_ZTSSt5ctypeIcE", !15, i64 16, !16, i64 24, !15, i64 32, !15, i64 40, !15, i64 48, !7, i64 56, !7, i64 57, !7, i64 313, !7, i64 569}
!19 = !{!7, !7, i64 0}
!20 = distinct !{!20, !10, !21}
!21 = !{!"llvm.loop.peeled.count", i32 2}
